; Function Attrs: nounwind uwtable
define ptr @l_Lean_RBNode_revFold___at_Lean_Widget_instToStringExprDiff___spec__2(ptr noundef %0, ptr noundef %1) local_unnamed_addr #0 {
  br label %3

3:                                                ; preds = %lean_alloc_ctor.exit27, %2
  %.020 = phi ptr [ %1, %2 ], [ %16, %lean_alloc_ctor.exit27 ]
  %.0 = phi ptr [ %0, %2 ], [ %46, %lean_alloc_ctor.exit27 ]
  %4 = ptrtoint ptr %.020 to i64
  %5 = and i64 %4, 1
  %.not.i = icmp eq i64 %5, 0
  br i1 %.not.i, label %9, label %6

6:                                                ; preds = %3
  %7 = lshr i64 %4, 1
  %8 = trunc i64 %7 to i32
  br label %lean_obj_tag.exit

9:                                                ; preds = %3
  %10 = getelementptr i8, ptr %.020, i64 4
  %.val.i = load i32, ptr %10, align 4
  %11 = lshr i32 %.val.i, 24
  br label %lean_obj_tag.exit

lean_obj_tag.exit:                                ; preds = %6, %9
  %.0.i = phi i32 [ %8, %6 ], [ %11, %9 ]
  %12 = icmp eq i32 %.0.i, 0
  br i1 %12, label %13, label %14

13:                                               ; preds = %lean_obj_tag.exit
  ret ptr %.0

14:                                               ; preds = %lean_obj_tag.exit
  %15 = getelementptr inbounds nuw i8, ptr %.020, i64 8
  %16 = load ptr, ptr %15, align 8, !tbaa !4
  %17 = getelementptr inbounds nuw i8, ptr %.020, i64 16
  %18 = load ptr, ptr %17, align 8, !tbaa !4
  %19 = getelementptr inbounds nuw i8, ptr %.020, i64 24
  %20 = load ptr, ptr %19, align 8, !tbaa !4
  %21 = getelementptr inbounds nuw i8, ptr %.020, i64 32
  %22 = load ptr, ptr %21, align 8, !tbaa !4
  %23 = tail call ptr @l_Lean_RBNode_revFold___at_Lean_Widget_instToStringExprDiff___spec__2(ptr noundef %.0, ptr noundef %22)
  %24 = ptrtoint ptr %20 to i64
  %25 = and i64 %24, 1
  %.not = icmp eq i64 %25, 0
  br i1 %.not, label %26, label %lean_inc.exit21

26:                                               ; preds = %14
  %.val.i22 = load i32, ptr %20, align 4, !tbaa !8
  %27 = icmp sgt i32 %.val.i22, 0
  br i1 %27, label %28, label %30, !prof !11

28:                                               ; preds = %26
  %29 = add nuw i32 %.val.i22, 1
  store i32 %29, ptr %20, align 4, !tbaa !8
  br label %lean_inc.exit21

30:                                               ; preds = %26
  %.not.i23 = icmp eq i32 %.val.i22, 0
  br i1 %.not.i23, label %lean_inc.exit21, label %31

31:                                               ; preds = %30
  tail call void @lean_inc_ref_cold(ptr noundef nonnull %20) #7
  br label %lean_inc.exit21

lean_inc.exit21:                                  ; preds = %31, %30, %28, %14
  %32 = ptrtoint ptr %18 to i64
  %33 = and i64 %32, 1
  %.not28 = icmp eq i64 %33, 0
  br i1 %.not28, label %34, label %lean_inc.exit

34:                                               ; preds = %lean_inc.exit21
  %.val.i24 = load i32, ptr %18, align 4, !tbaa !8
  %35 = icmp sgt i32 %.val.i24, 0
  br i1 %35, label %36, label %38, !prof !11

36:                                               ; preds = %34
  %37 = add nuw i32 %.val.i24, 1
  store i32 %37, ptr %18, align 4, !tbaa !8
  br label %lean_inc.exit

38:                                               ; preds = %34
  %.not.i25 = icmp eq i32 %.val.i24, 0
  br i1 %.not.i25, label %lean_inc.exit, label %39

39:                                               ; preds = %38
  tail call void @lean_inc_ref_cold(ptr noundef nonnull %18) #7
  br label %lean_inc.exit

lean_inc.exit:                                    ; preds = %39, %38, %36, %lean_inc.exit21
  tail call void @lean_inc_heartbeat() #7
  %40 = tail call noalias ptr @mi_malloc_small(i64 noundef 24) #7
  %41 = icmp eq ptr %40, null
  br i1 %41, label %42, label %lean_alloc_ctor.exit

42:                                               ; preds = %lean_inc.exit
  tail call void @lean_internal_panic_out_of_memory() #8
  unreachable

lean_alloc_ctor.exit:                             ; preds = %lean_inc.exit
  %43 = getelementptr inbounds nuw i8, ptr %40, i64 4
  store i32 1, ptr %40, align 4, !tbaa !8
  store i32 131096, ptr %43, align 4
  %44 = getelementptr inbounds nuw i8, ptr %40, i64 8
  store ptr %18, ptr %44, align 8, !tbaa !4
  %45 = getelementptr inbounds nuw i8, ptr %40, i64 16
  store ptr %20, ptr %45, align 8, !tbaa !4
  tail call void @lean_inc_heartbeat() #7
  %46 = tail call noalias ptr @mi_malloc_small(i64 noundef 24) #7
  %47 = icmp eq ptr %46, null
  br i1 %47, label %48, label %lean_alloc_ctor.exit27

48:                                               ; preds = %lean_alloc_ctor.exit
  tail call void @lean_internal_panic_out_of_memory() #8
  unreachable

lean_alloc_ctor.exit27:                           ; preds = %lean_alloc_ctor.exit
  %49 = getelementptr inbounds nuw i8, ptr %46, i64 4
  store i32 1, ptr %46, align 4, !tbaa !8
  store i32 16908312, ptr %49, align 4
  %50 = getelementptr inbounds nuw i8, ptr %46, i64 8
  store ptr %40, ptr %50, align 8, !tbaa !4
  %51 = getelementptr inbounds nuw i8, ptr %46, i64 16
  store ptr %23, ptr %51, align 8, !tbaa !4
  br label %3
}